target datalayout = "e-m:e-p270:32:32-p271:32:32-p272:64:64-i64:64-i128:128-f80:128-n8:16:32:64-S128"
target triple = "x86_64-pc-linux-gnu"

%struct.pmix_mca_base_framework_t = type { ptr, ptr, ptr, ptr, ptr, ptr, i32, i32, ptr, ptr, i32, i32, %struct.pmix_list_t, %struct.pmix_list_t }
%struct.pmix_list_t = type { %struct.pmix_object_t, %struct.pmix_list_item_t, i64 }
%struct.pmix_object_t = type { %union.pthread_mutex_t, ptr, i32, %struct.pmix_tma }
%union.pthread_mutex_t = type { %struct.__pthread_mutex_s }
%struct.__pthread_mutex_s = type { i32, i32, i32, i32, i32, i16, i16, %struct.__pthread_internal_list }
%struct.__pthread_internal_list = type { ptr, ptr }
%struct.pmix_tma = type { ptr, ptr, ptr, ptr, ptr, ptr, ptr, ptr }
%struct.pmix_list_item_t = type { %struct.pmix_object_t, ptr, ptr, i32 }
%struct.pmix_class_t = type { ptr, ptr, ptr, ptr, i32, i32, ptr, ptr, i64 }
%struct.pmix_output_desc_t = type { i8, i8, i32, i8, i32, ptr, ptr, i32, ptr, i32, i8, i8, i8, i8, ptr, i32, i32 }
%struct.prte_process_info_t = type { %struct.pmix_proc, %struct.pmix_proc, ptr, %struct.pmix_proc, i32, i32, i32, ptr, ptr, i32, i8, ptr, i16, ptr, ptr, i8, ptr, i8 }
%struct.pmix_proc = type { [256 x i8], i32 }
%struct.prte_iof_proc_t = type { %struct.pmix_list_item_t, %struct.pmix_proc, ptr, ptr, ptr }
%struct.timeval = type { i64, i64 }
%struct.prte_iof_read_event_t = type { %struct.pmix_object_t, ptr, ptr, %struct.timeval, i32, i16, i8, i8, i8, ptr }

@.str.14 = private unnamed_addr constant [21 x i8] c"pthread_mutex_lock()\00", align 1
@pmix_output_info = external global [0 x %struct.pmix_output_desc_t], align 8
@prte_process_info = external global %struct.prte_process_info_t, align 8
@.str.16 = private unnamed_addr constant [37 x i8] c"%s iof: closing fd %d for process %s\00", align 1
@.str.17 = private unnamed_addr constant [8 x i8] c"UNKNOWN\00", align 1

; Function Attrs: inlinehint nounwind uwtable
define internal void @pmix_tma_free(ptr noundef %0, ptr noundef %1) #2 {
  %3 = alloca ptr, align 8
  %4 = alloca ptr, align 8
  store ptr %0, ptr %3, align 8, !tbaa !30
  store ptr %1, ptr %4, align 8, !tbaa !16
  %5 = load ptr, ptr %3, align 8, !tbaa !30
  %6 = icmp ne ptr null, %5
  br i1 %6, label %7, label %13

7:                                                ; preds = %2
  %8 = load ptr, ptr %3, align 8, !tbaa !30
  %9 = getelementptr inbounds nuw %struct.pmix_tma, ptr %8, i32 0, i32 5
  %10 = load ptr, ptr %9, align 8, !tbaa !47
  %11 = load ptr, ptr %3, align 8, !tbaa !30
  %12 = load ptr, ptr %4, align 8, !tbaa !16
  call void %10(ptr noundef %11, ptr noundef %12)
  br label %15

13:                                               ; preds = %2
  %14 = load ptr, ptr %4, align 8, !tbaa !16
  call void @free(ptr noundef %14) #11
  br label %15

15:                                               ; preds = %13, %7
  ret void
}

; Function Attrs: inlinehint nounwind uwtable
define internal void @pmix_obj_run_destructors(ptr noundef %0) #2 {
  %2 = alloca ptr, align 8
  %3 = alloca ptr, align 8
  store ptr %0, ptr %2, align 8, !tbaa !26
  call void @llvm.lifetime.start.p0(i64 8, ptr %3) #11
  %4 = load ptr, ptr %2, align 8, !tbaa !26
  %5 = getelementptr inbounds nuw %struct.pmix_object_t, ptr %4, i32 0, i32 1
  %6 = load ptr, ptr %5, align 8, !tbaa !35
  %7 = getelementptr inbounds nuw %struct.pmix_class_t, ptr %6, i32 0, i32 7
  %8 = load ptr, ptr %7, align 8, !tbaa !44
  store ptr %8, ptr %3, align 8, !tbaa !16
  br label %9

9:                                                ; preds = %13, %1
  %10 = load ptr, ptr %3, align 8, !tbaa !16
  %11 = load ptr, ptr %10, align 8, !tbaa !16
  %12 = icmp ne ptr null, %11
  br i1 %12, label %13, label %19

13:                                               ; preds = %9
  %14 = load ptr, ptr %3, align 8, !tbaa !16
  %15 = load ptr, ptr %14, align 8, !tbaa !16
  %16 = load ptr, ptr %2, align 8, !tbaa !26
  call void %15(ptr noundef %16)
  %17 = load ptr, ptr %3, align 8, !tbaa !16
  %18 = getelementptr inbounds nuw ptr, ptr %17, i32 1
  store ptr %18, ptr %3, align 8, !tbaa !16
  br label %9, !llvm.loop !45

19:                                               ; preds = %9
  call void @llvm.lifetime.end.p0(i64 8, ptr %3) #11
  ret void
}

; Function Attrs: alwaysinline nounwind uwtable
define internal i32 @pmix_obj_update(ptr noundef %0, i32 noundef %1) #5 {
  %3 = alloca ptr, align 8
  %4 = alloca i32, align 4
  %5 = alloca i32, align 4
  store ptr %0, ptr %3, align 8, !tbaa !26
  store i32 %1, ptr %4, align 4, !tbaa !3
  call void @llvm.lifetime.start.p0(i64 4, ptr %5) #11
  %6 = load ptr, ptr %3, align 8, !tbaa !26
  %7 = getelementptr inbounds nuw %struct.pmix_object_t, ptr %6, i32 0, i32 0
  %8 = call i32 @pthread_mutex_lock(ptr noundef %7) #11
  store i32 %8, ptr %5, align 4, !tbaa !3
  %9 = load i32, ptr %5, align 4, !tbaa !3
  %10 = icmp eq i32 %9, 35
  br i1 %10, label %11, label %14

11:                                               ; preds = %2
  %12 = load i32, ptr %5, align 4, !tbaa !3
  %13 = call ptr @__errno_location() #13
  store i32 %12, ptr %13, align 4, !tbaa !3
  call void @perror(ptr noundef @.str.14)
  call void @abort() #14
  unreachable

14:                                               ; preds = %2
  %15 = load i32, ptr %4, align 4, !tbaa !3
  %16 = load ptr, ptr %3, align 8, !tbaa !26
  %17 = getelementptr inbounds nuw %struct.pmix_object_t, ptr %16, i32 0, i32 2
  %18 = load i32, ptr %17, align 8, !tbaa !36
  %19 = add nsw i32 %18, %15
  store i32 %19, ptr %17, align 8, !tbaa !36
  store i32 %19, ptr %5, align 4, !tbaa !3
  %20 = load ptr, ptr %3, align 8, !tbaa !26
  %21 = getelementptr inbounds nuw %struct.pmix_object_t, ptr %20, i32 0, i32 0
  %22 = call i32 @pthread_mutex_unlock(ptr noundef %21) #11
  %23 = load i32, ptr %5, align 4, !tbaa !3
  call void @llvm.lifetime.end.p0(i64 4, ptr %5) #11
  ret i32 %23
}

; Function Attrs: nounwind uwtable
define internal void @prte_iof_base_read_event_destruct(ptr noundef %0) #0 {
  %2 = alloca ptr, align 8
  %3 = alloca ptr, align 8
  %4 = alloca ptr, align 8
  %5 = alloca ptr, align 8
  store ptr %0, ptr %2, align 8, !tbaa !16
  call void @llvm.lifetime.start.p0(i64 8, ptr %3) #11
  %6 = load ptr, ptr %2, align 8, !tbaa !16
  %7 = getelementptr inbounds nuw %struct.prte_iof_read_event_t, ptr %6, i32 0, i32 1
  %8 = load ptr, ptr %7, align 8, !tbaa !70
  store ptr %8, ptr %3, align 8, !tbaa !16
  %9 = load ptr, ptr %2, align 8, !tbaa !16
  %10 = getelementptr inbounds nuw %struct.prte_iof_read_event_t, ptr %9, i32 0, i32 4
  %11 = load i32, ptr %10, align 8, !tbaa !73
  %12 = icmp sle i32 0, %11
  br i1 %12, label %13, label %51

13:                                               ; preds = %1
  %14 = load ptr, ptr %2, align 8, !tbaa !16
  %15 = getelementptr inbounds nuw %struct.prte_iof_read_event_t, ptr %14, i32 0, i32 2
  %16 = load ptr, ptr %15, align 8, !tbaa !77
  call void @event_free(ptr noundef %16)
  %17 = load i32, ptr getelementptr inbounds nuw (%struct.pmix_mca_base_framework_t, ptr @prte_iof_base_framework, i32 0, i32 11), align 4, !tbaa !60
  %18 = icmp sge i32 %17, 0
  br i1 %18, label %19, label %44

19:                                               ; preds = %13
  %20 = load i32, ptr getelementptr inbounds nuw (%struct.pmix_mca_base_framework_t, ptr @prte_iof_base_framework, i32 0, i32 11), align 4, !tbaa !60
  %21 = icmp slt i32 %20, 64
  br i1 %21, label %22, label %44

22:                                               ; preds = %19
  %23 = load i32, ptr getelementptr inbounds nuw (%struct.pmix_mca_base_framework_t, ptr @prte_iof_base_framework, i32 0, i32 11), align 4, !tbaa !60
  %24 = sext i32 %23 to i64
  %25 = getelementptr inbounds [0 x %struct.pmix_output_desc_t], ptr @pmix_output_info, i64 0, i64 %24
  %26 = getelementptr inbounds nuw %struct.pmix_output_desc_t, ptr %25, i32 0, i32 2
  %27 = load i32, ptr %26, align 4, !tbaa !64
  %28 = icmp sge i32 %27, 20
  br i1 %28, label %29, label %44

29:                                               ; preds = %22
  %30 = load i32, ptr getelementptr inbounds nuw (%struct.pmix_mca_base_framework_t, ptr @prte_iof_base_framework, i32 0, i32 11), align 4, !tbaa !60
  %31 = call ptr @prte_util_print_name_args(ptr noundef @prte_process_info)
  %32 = load ptr, ptr %2, align 8, !tbaa !16
  %33 = getelementptr inbounds nuw %struct.prte_iof_read_event_t, ptr %32, i32 0, i32 4
  %34 = load i32, ptr %33, align 8, !tbaa !73
  %35 = load ptr, ptr %3, align 8, !tbaa !16
  %36 = icmp eq ptr null, %35
  br i1 %36, label %37, label %38

37:                                               ; preds = %29
  br label %42

38:                                               ; preds = %29
  %39 = load ptr, ptr %3, align 8, !tbaa !16
  %40 = getelementptr inbounds nuw %struct.prte_iof_proc_t, ptr %39, i32 0, i32 1
  %41 = call ptr @prte_util_print_name_args(ptr noundef %40)
  br label %42

42:                                               ; preds = %38, %37
  %43 = phi ptr [ @.str.17, %37 ], [ %41, %38 ]
  call void (i32, ptr, ...) @pmix_output(i32 noundef %30, ptr noundef @.str.16, ptr noundef %31, i32 noundef %34, ptr noundef %43)
  br label %44

44:                                               ; preds = %42, %22, %19, %13
  %45 = load ptr, ptr %2, align 8, !tbaa !16
  %46 = getelementptr inbounds nuw %struct.prte_iof_read_event_t, ptr %45, i32 0, i32 4
  %47 = load i32, ptr %46, align 8, !tbaa !73
  %48 = call i32 @close(i32 noundef %47)
  %49 = load ptr, ptr %2, align 8, !tbaa !16
  %50 = getelementptr inbounds nuw %struct.prte_iof_read_event_t, ptr %49, i32 0, i32 4
  store i32 -1, ptr %50, align 8, !tbaa !73
  br label %55

51:                                               ; preds = %1
  %52 = load ptr, ptr %2, align 8, !tbaa !16
  %53 = getelementptr inbounds nuw %struct.prte_iof_read_event_t, ptr %52, i32 0, i32 2
  %54 = load ptr, ptr %53, align 8, !tbaa !77
  call void @free(ptr noundef %54) #11
  br label %55

55:                                               ; preds = %51, %44
  %56 = load ptr, ptr %2, align 8, !tbaa !16
  %57 = getelementptr inbounds nuw %struct.prte_iof_read_event_t, ptr %56, i32 0, i32 9
  %58 = load ptr, ptr %57, align 8, !tbaa !78
  %59 = icmp ne ptr null, %58
  br i1 %59, label %60, label %91

60:                                               ; preds = %55
  br label %61

61:                                               ; preds = %60
  call void @llvm.lifetime.start.p0(i64 8, ptr %4) #11
  %62 = load ptr, ptr %2, align 8, !tbaa !16
  %63 = getelementptr inbounds nuw %struct.prte_iof_read_event_t, ptr %62, i32 0, i32 9
  %64 = load ptr, ptr %63, align 8, !tbaa !78
  store ptr %64, ptr %4, align 8, !tbaa !26
  %65 = load ptr, ptr %4, align 8, !tbaa !26
  %66 = call i32 @pmix_obj_update(ptr noundef %65, i32 noundef -1)
  %67 = icmp eq i32 0, %66
  br i1 %67, label %68, label %88

68:                                               ; preds = %61
  %69 = load ptr, ptr %4, align 8, !tbaa !26
  call void @pmix_obj_run_destructors(ptr noundef %69)
  %70 = load ptr, ptr %4, align 8, !tbaa !26
  %71 = getelementptr inbounds nuw %struct.pmix_object_t, ptr %70, i32 0, i32 3
  %72 = getelementptr inbounds nuw %struct.pmix_tma, ptr %71, i32 0, i32 5
  %73 = load ptr, ptr %72, align 8, !tbaa !28
  %74 = icmp ne ptr null, %73
  br i1 %74, label %75, label %81

75:                                               ; preds = %68
  %76 = load ptr, ptr %4, align 8, !tbaa !26
  %77 = getelementptr inbounds nuw %struct.pmix_object_t, ptr %76, i32 0, i32 3
  %78 = load ptr, ptr %2, align 8, !tbaa !16
  %79 = getelementptr inbounds nuw %struct.prte_iof_read_event_t, ptr %78, i32 0, i32 9
  %80 = load ptr, ptr %79, align 8, !tbaa !78
  call void @pmix_tma_free(ptr noundef %77, ptr noundef %80)
  br label %85

81:                                               ; preds = %68
  %82 = load ptr, ptr %2, align 8, !tbaa !16
  %83 = getelementptr inbounds nuw %struct.prte_iof_read_event_t, ptr %82, i32 0, i32 9
  %84 = load ptr, ptr %83, align 8, !tbaa !78
  call void @free(ptr noundef %84) #11
  br label %85

85:                                               ; preds = %81, %75
  %86 = load ptr, ptr %2, align 8, !tbaa !16
  %87 = getelementptr inbounds nuw %struct.prte_iof_read_event_t, ptr %86, i32 0, i32 9
  store ptr null, ptr %87, align 8, !tbaa !78
  br label %88

88:                                               ; preds = %85, %61
  call void @llvm.lifetime.end.p0(i64 8, ptr %4) #11
  br label %89

89:                                               ; preds = %88
  br label %90

90:                                               ; preds = %89
  br label %91

91:                                               ; preds = %90, %55
  %92 = load ptr, ptr %3, align 8, !tbaa !16
  %93 = icmp ne ptr null, %92
  br i1 %93, label %94, label %117

94:                                               ; preds = %91
  br label %95

95:                                               ; preds = %94
  call void @llvm.lifetime.start.p0(i64 8, ptr %5) #11
  %96 = load ptr, ptr %3, align 8, !tbaa !16
  store ptr %96, ptr %5, align 8, !tbaa !26
  %97 = load ptr, ptr %5, align 8, !tbaa !26
  %98 = call i32 @pmix_obj_update(ptr noundef %97, i32 noundef -1)
  %99 = icmp eq i32 0, %98
  br i1 %99, label %100, label %114

100:                                              ; preds = %95
  %101 = load ptr, ptr %5, align 8, !tbaa !26
  call void @pmix_obj_run_destructors(ptr noundef %101)
  %102 = load ptr, ptr %5, align 8, !tbaa !26
  %103 = getelementptr inbounds nuw %struct.pmix_object_t, ptr %102, i32 0, i32 3
  %104 = getelementptr inbounds nuw %struct.pmix_tma, ptr %103, i32 0, i32 5
  %105 = load ptr, ptr %104, align 8, !tbaa !28
  %106 = icmp ne ptr null, %105
  br i1 %106, label %107, label %111

107:                                              ; preds = %100
  %108 = load ptr, ptr %5, align 8, !tbaa !26
  %109 = getelementptr inbounds nuw %struct.pmix_object_t, ptr %108, i32 0, i32 3
  %110 = load ptr, ptr %3, align 8, !tbaa !16
  call void @pmix_tma_free(ptr noundef %109, ptr noundef %110)
  br label %113

111:                                              ; preds = %100
  %112 = load ptr, ptr %3, align 8, !tbaa !16
  call void @free(ptr noundef %112) #11
  br label %113

113:                                              ; preds = %111, %107
  store ptr null, ptr %3, align 8, !tbaa !16
  br label %114

114:                                              ; preds = %113, %95
  call void @llvm.lifetime.end.p0(i64 8, ptr %5) #11
  br label %115

115:                                              ; preds = %114
  br label %116

116:                                              ; preds = %115
  br label %117

117:                                              ; preds = %116, %91
  call void @llvm.lifetime.end.p0(i64 8, ptr %3) #11
  ret void
}