; Function Attrs: nounwind uwtable
define internal void @prte_iof_base_read_event_destruct(ptr noundef captures(none) %0) #0 {
  %2 = getelementptr inbounds nuw i8, ptr %0, i64 120
  %3 = load ptr, ptr %2, align 8, !tbaa !55
  %4 = getelementptr inbounds nuw i8, ptr %0, i64 152
  %5 = load i32, ptr %4, align 8, !tbaa !58
  %6 = icmp sgt i32 %5, -1
  %7 = getelementptr inbounds nuw i8, ptr %0, i64 128
  %8 = load ptr, ptr %7, align 8, !tbaa !62
  br i1 %6, label %9, label %28

9:                                                ; preds = %1
  tail call void @event_free(ptr noundef %8) #12
  %10 = load i32, ptr getelementptr inbounds nuw (i8, ptr @prte_iof_base_framework, i64 76), align 4, !tbaa !45
  %or.cond = icmp ult i32 %10, 64
  br i1 %or.cond, label %11, label %25

11:                                               ; preds = %9
  %12 = zext nneg i32 %10 to i64
  %13 = getelementptr inbounds nuw [0 x %struct.pmix_output_desc_t], ptr @pmix_output_info, i64 0, i64 %12, i32 2
  %14 = load i32, ptr %13, align 4, !tbaa !49
  %15 = icmp sgt i32 %14, 19
  br i1 %15, label %16, label %25

16:                                               ; preds = %11
  %17 = tail call ptr @prte_util_print_name_args(ptr noundef nonnull @prte_process_info) #12
  %18 = load i32, ptr %4, align 8, !tbaa !58
  %19 = icmp eq ptr %3, null
  br i1 %19, label %23, label %20

20:                                               ; preds = %16
  %21 = getelementptr inbounds nuw i8, ptr %3, i64 144
  %22 = tail call ptr @prte_util_print_name_args(ptr noundef nonnull %21) #12
  br label %23

23:                                               ; preds = %16, %20
  %24 = phi ptr [ %22, %20 ], [ @.str.17, %16 ]
  tail call void (i32, ptr, ...) @pmix_output(i32 noundef %10, ptr noundef nonnull @.str.16, ptr noundef %17, i32 noundef %18, ptr noundef %24) #12
  br label %25

25:                                               ; preds = %23, %11, %9
  %26 = load i32, ptr %4, align 8, !tbaa !58
  %27 = tail call i32 @close(i32 noundef %26) #12
  store i32 -1, ptr %4, align 8, !tbaa !58
  br label %29

28:                                               ; preds = %1
  tail call void @free(ptr noundef %8) #12
  br label %29

29:                                               ; preds = %28, %25
  %30 = getelementptr inbounds nuw i8, ptr %0, i64 168
  %31 = load ptr, ptr %30, align 8, !tbaa !63
  %.not = icmp eq ptr %31, null
  br i1 %.not, label %59, label %32

32:                                               ; preds = %29
  %33 = tail call i32 @pthread_mutex_lock(ptr noundef nonnull %31) #12
  %34 = icmp eq i32 %33, 35
  br i1 %34, label %35, label %pmix_obj_update.exit32

35:                                               ; preds = %32
  %36 = tail call ptr @__errno_location() #15
  store i32 35, ptr %36, align 4, !tbaa !3
  tail call void @perror(ptr noundef nonnull @.str.14) #16
  tail call void @abort() #17
  unreachable

pmix_obj_update.exit32:                           ; preds = %32
  %37 = getelementptr inbounds nuw i8, ptr %31, i64 48
  %38 = load i32, ptr %37, align 8, !tbaa !19
  %39 = add nsw i32 %38, -1
  store i32 %39, ptr %37, align 8, !tbaa !19
  %40 = tail call i32 @pthread_mutex_unlock(ptr noundef nonnull %31) #12
  %41 = icmp eq i32 %39, 0
  br i1 %41, label %42, label %59

42:                                               ; preds = %pmix_obj_update.exit32
  %43 = getelementptr inbounds nuw i8, ptr %31, i64 40
  %44 = load ptr, ptr %43, align 8, !tbaa !16
  %45 = getelementptr inbounds nuw i8, ptr %44, i64 48
  %46 = load ptr, ptr %45, align 8, !tbaa !29
  %47 = load ptr, ptr %46, align 8, !tbaa !21
  %.not6.i = icmp eq ptr %47, null
  br i1 %.not6.i, label %pmix_obj_run_destructors.exit, label %.lr.ph.i

.lr.ph.i:                                         ; preds = %42, %.lr.ph.i
  %48 = phi ptr [ %50, %.lr.ph.i ], [ %47, %42 ]
  %.07.i = phi ptr [ %49, %.lr.ph.i ], [ %46, %42 ]
  tail call void %48(ptr noundef nonnull %31) #12
  %49 = getelementptr inbounds nuw i8, ptr %.07.i, i64 8
  %50 = load ptr, ptr %49, align 8, !tbaa !21
  %.not.i = icmp eq ptr %50, null
  br i1 %.not.i, label %pmix_obj_run_destructors.exit, label %.lr.ph.i, !llvm.loop !30

pmix_obj_run_destructors.exit:                    ; preds = %.lr.ph.i, %42
  %51 = getelementptr inbounds nuw i8, ptr %31, i64 96
  %52 = load ptr, ptr %51, align 8, !tbaa !31
  %.not29 = icmp eq ptr %52, null
  br i1 %.not29, label %56, label %53

53:                                               ; preds = %pmix_obj_run_destructors.exit
  %54 = getelementptr inbounds nuw i8, ptr %31, i64 56
  %55 = load ptr, ptr %30, align 8, !tbaa !63
  tail call void %52(ptr noundef nonnull %54, ptr noundef %55) #12
  br label %58

56:                                               ; preds = %pmix_obj_run_destructors.exit
  %57 = load ptr, ptr %30, align 8, !tbaa !63
  tail call void @free(ptr noundef %57) #12
  br label %58

58:                                               ; preds = %56, %53
  store ptr null, ptr %30, align 8, !tbaa !63
  br label %59

59:                                               ; preds = %pmix_obj_update.exit32, %58, %29
  %.not30 = icmp eq ptr %3, null
  br i1 %.not30, label %84, label %60

60:                                               ; preds = %59
  %61 = tail call i32 @pthread_mutex_lock(ptr noundef nonnull %3) #12
  %62 = icmp eq i32 %61, 35
  br i1 %62, label %63, label %pmix_obj_update.exit

63:                                               ; preds = %60
  %64 = tail call ptr @__errno_location() #15
  store i32 35, ptr %64, align 4, !tbaa !3
  tail call void @perror(ptr noundef nonnull @.str.14) #16
  tail call void @abort() #17
  unreachable

pmix_obj_update.exit:                             ; preds = %60
  %65 = getelementptr inbounds nuw i8, ptr %3, i64 48
  %66 = load i32, ptr %65, align 8, !tbaa !19
  %67 = add nsw i32 %66, -1
  store i32 %67, ptr %65, align 8, !tbaa !19
  %68 = tail call i32 @pthread_mutex_unlock(ptr noundef nonnull %3) #12
  %69 = icmp eq i32 %67, 0
  br i1 %69, label %70, label %84

70:                                               ; preds = %pmix_obj_update.exit
  %71 = getelementptr inbounds nuw i8, ptr %3, i64 40
  %72 = load ptr, ptr %71, align 8, !tbaa !16
  %73 = getelementptr inbounds nuw i8, ptr %72, i64 48
  %74 = load ptr, ptr %73, align 8, !tbaa !29
  %75 = load ptr, ptr %74, align 8, !tbaa !21
  %.not6.i34 = icmp eq ptr %75, null
  br i1 %.not6.i34, label %pmix_obj_run_destructors.exit38, label %.lr.ph.i35

.lr.ph.i35:                                       ; preds = %70, %.lr.ph.i35
  %76 = phi ptr [ %78, %.lr.ph.i35 ], [ %75, %70 ]
  %.07.i36 = phi ptr [ %77, %.lr.ph.i35 ], [ %74, %70 ]
  tail call void %76(ptr noundef nonnull %3) #12
  %77 = getelementptr inbounds nuw i8, ptr %.07.i36, i64 8
  %78 = load ptr, ptr %77, align 8, !tbaa !21
  %.not.i37 = icmp eq ptr %78, null
  br i1 %.not.i37, label %pmix_obj_run_destructors.exit38, label %.lr.ph.i35, !llvm.loop !30

pmix_obj_run_destructors.exit38:                  ; preds = %.lr.ph.i35, %70
  %79 = getelementptr inbounds nuw i8, ptr %3, i64 96
  %80 = load ptr, ptr %79, align 8, !tbaa !31
  %.not31 = icmp eq ptr %80, null
  br i1 %.not31, label %83, label %81

81:                                               ; preds = %pmix_obj_run_destructors.exit38
  %82 = getelementptr inbounds nuw i8, ptr %3, i64 56
  tail call void %80(ptr noundef nonnull %82, ptr noundef nonnull %3) #12
  br label %84

83:                                               ; preds = %pmix_obj_run_destructors.exit38
  tail call void @free(ptr noundef nonnull %3) #12
  br label %84

84:                                               ; preds = %pmix_obj_update.exit, %83, %81, %59
  ret void
}